target datalayout = "e-m:e-p270:32:32-p271:32:32-p272:64:64-i64:64-i128:128-f80:128-n8:16:32:64-S128"
target triple = "x86_64-pc-linux-gnu"

%struct.__storeu_si128 = type { <2 x i64> }
%struct.__loadu_si128 = type { <2 x i64> }

; Function Attrs: alwaysinline nounwind uwtable
define internal void @_mm_storeu_si128(ptr noundef %0, <2 x i64> noundef %1) #4 {
  %3 = alloca ptr, align 8
  %4 = alloca <2 x i64>, align 16
  store ptr %0, ptr %3, align 8, !tbaa !3
  store <2 x i64> %1, ptr %4, align 16, !tbaa !11
  %5 = load <2 x i64>, ptr %4, align 16, !tbaa !11
  %6 = load ptr, ptr %3, align 8, !tbaa !3
  %7 = getelementptr inbounds nuw %struct.__storeu_si128, ptr %6, i32 0, i32 0
  store <2 x i64> %5, ptr %7, align 1, !tbaa !11
  ret void
}

; Function Attrs: alwaysinline nounwind uwtable
define internal <2 x i64> @_mm_add_epi8(<2 x i64> noundef %0, <2 x i64> noundef %1) #4 {
  %3 = alloca <2 x i64>, align 16
  %4 = alloca <2 x i64>, align 16
  store <2 x i64> %0, ptr %3, align 16, !tbaa !11
  store <2 x i64> %1, ptr %4, align 16, !tbaa !11
  %5 = load <2 x i64>, ptr %3, align 16, !tbaa !11
  %6 = bitcast <2 x i64> %5 to <16 x i8>
  %7 = load <2 x i64>, ptr %4, align 16, !tbaa !11
  %8 = bitcast <2 x i64> %7 to <16 x i8>
  %9 = add <16 x i8> %6, %8
  %10 = bitcast <16 x i8> %9 to <2 x i64>
  ret <2 x i64> %10
}

; Function Attrs: alwaysinline nounwind uwtable
define internal <2 x i64> @_mm_srli_epi16(<2 x i64> noundef %0, i32 noundef %1) #4 {
  %3 = alloca <2 x i64>, align 16
  %4 = alloca i32, align 4
  store <2 x i64> %0, ptr %3, align 16, !tbaa !11
  store i32 %1, ptr %4, align 4, !tbaa !9
  %5 = load <2 x i64>, ptr %3, align 16, !tbaa !11
  %6 = bitcast <2 x i64> %5 to <8 x i16>
  %7 = load i32, ptr %4, align 4, !tbaa !9
  %8 = call <8 x i16> @llvm.x86.sse2.psrli.w(<8 x i16> %6, i32 %7)
  %9 = bitcast <8 x i16> %8 to <2 x i64>
  ret <2 x i64> %9
}

; Function Attrs: alwaysinline nounwind uwtable
define internal <2 x i64> @_mm_loadu_si128(ptr noundef %0) #4 {
  %2 = alloca ptr, align 8
  store ptr %0, ptr %2, align 8, !tbaa !3
  %3 = load ptr, ptr %2, align 8, !tbaa !3
  %4 = getelementptr inbounds nuw %struct.__loadu_si128, ptr %3, i32 0, i32 0
  %5 = load <2 x i64>, ptr %4, align 1, !tbaa !11
  ret <2 x i64> %5
}

; Function Attrs: nounwind uwtable
define internal void @AddGreenToBlueAndRed_SSE2(ptr noundef %0, i32 noundef %1, ptr noundef %2) #1 {
  %4 = alloca ptr, align 8
  %5 = alloca i32, align 4
  %6 = alloca ptr, align 8
  %7 = alloca i32, align 4
  %8 = alloca <2 x i64>, align 16
  %9 = alloca <2 x i64>, align 16
  %10 = alloca <2 x i64>, align 16
  %11 = alloca <2 x i64>, align 16
  %12 = alloca <2 x i64>, align 16
  store ptr %0, ptr %4, align 8, !tbaa !7
  store i32 %1, ptr %5, align 4, !tbaa !9
  store ptr %2, ptr %6, align 8, !tbaa !7
  call void @llvm.lifetime.start.p0(i64 4, ptr %7) #9
  store i32 0, ptr %7, align 4, !tbaa !9
  br label %13

13:                                               ; preds = %42, %3
  %14 = load i32, ptr %7, align 4, !tbaa !9
  %15 = add nsw i32 %14, 4
  %16 = load i32, ptr %5, align 4, !tbaa !9
  %17 = icmp sle i32 %15, %16
  br i1 %17, label %18, label %45

18:                                               ; preds = %13
  call void @llvm.lifetime.start.p0(i64 16, ptr %8) #9
  %19 = load ptr, ptr %4, align 8, !tbaa !7
  %20 = load i32, ptr %7, align 4, !tbaa !9
  %21 = sext i32 %20 to i64
  %22 = getelementptr inbounds i32, ptr %19, i64 %21
  %23 = call <2 x i64> @_mm_loadu_si128(ptr noundef %22)
  store <2 x i64> %23, ptr %8, align 16, !tbaa !11
  call void @llvm.lifetime.start.p0(i64 16, ptr %9) #9
  %24 = load <2 x i64>, ptr %8, align 16, !tbaa !11
  %25 = call <2 x i64> @_mm_srli_epi16(<2 x i64> noundef %24, i32 noundef 8)
  store <2 x i64> %25, ptr %9, align 16, !tbaa !11
  call void @llvm.lifetime.start.p0(i64 16, ptr %10) #9
  %26 = load <2 x i64>, ptr %9, align 16, !tbaa !11
  %27 = bitcast <2 x i64> %26 to <8 x i16>
  %28 = shufflevector <8 x i16> %27, <8 x i16> poison, <8 x i32> <i32 0, i32 0, i32 2, i32 2, i32 4, i32 5, i32 6, i32 7>
  %29 = bitcast <8 x i16> %28 to <2 x i64>
  store <2 x i64> %29, ptr %10, align 16, !tbaa !11
  call void @llvm.lifetime.start.p0(i64 16, ptr %11) #9
  %30 = load <2 x i64>, ptr %10, align 16, !tbaa !11
  %31 = bitcast <2 x i64> %30 to <8 x i16>
  %32 = shufflevector <8 x i16> %31, <8 x i16> poison, <8 x i32> <i32 0, i32 1, i32 2, i32 3, i32 4, i32 4, i32 6, i32 6>
  %33 = bitcast <8 x i16> %32 to <2 x i64>
  store <2 x i64> %33, ptr %11, align 16, !tbaa !11
  call void @llvm.lifetime.start.p0(i64 16, ptr %12) #9
  %34 = load <2 x i64>, ptr %8, align 16, !tbaa !11
  %35 = load <2 x i64>, ptr %11, align 16, !tbaa !11
  %36 = call <2 x i64> @_mm_add_epi8(<2 x i64> noundef %34, <2 x i64> noundef %35)
  store <2 x i64> %36, ptr %12, align 16, !tbaa !11
  %37 = load ptr, ptr %6, align 8, !tbaa !7
  %38 = load i32, ptr %7, align 4, !tbaa !9
  %39 = sext i32 %38 to i64
  %40 = getelementptr inbounds i32, ptr %37, i64 %39
  %41 = load <2 x i64>, ptr %12, align 16, !tbaa !11
  call void @_mm_storeu_si128(ptr noundef %40, <2 x i64> noundef %41)
  call void @llvm.lifetime.end.p0(i64 16, ptr %12) #9
  call void @llvm.lifetime.end.p0(i64 16, ptr %11) #9
  call void @llvm.lifetime.end.p0(i64 16, ptr %10) #9
  call void @llvm.lifetime.end.p0(i64 16, ptr %9) #9
  call void @llvm.lifetime.end.p0(i64 16, ptr %8) #9
  br label %42

42:                                               ; preds = %18
  %43 = load i32, ptr %7, align 4, !tbaa !9
  %44 = add nsw i32 %43, 4
  store i32 %44, ptr %7, align 4, !tbaa !9
  br label %13, !llvm.loop !27

45:                                               ; preds = %13
  %46 = load i32, ptr %7, align 4, !tbaa !9
  %47 = load i32, ptr %5, align 4, !tbaa !9
  %48 = icmp ne i32 %46, %47
  br i1 %48, label %49, label %61

49:                                               ; preds = %45
  %50 = load ptr, ptr %4, align 8, !tbaa !7
  %51 = load i32, ptr %7, align 4, !tbaa !9
  %52 = sext i32 %51 to i64
  %53 = getelementptr inbounds i32, ptr %50, i64 %52
  %54 = load i32, ptr %5, align 4, !tbaa !9
  %55 = load i32, ptr %7, align 4, !tbaa !9
  %56 = sub nsw i32 %54, %55
  %57 = load ptr, ptr %6, align 8, !tbaa !7
  %58 = load i32, ptr %7, align 4, !tbaa !9
  %59 = sext i32 %58 to i64
  %60 = getelementptr inbounds i32, ptr %57, i64 %59
  call void @VP8LAddGreenToBlueAndRed_C(ptr noundef %53, i32 noundef %56, ptr noundef %60)
  br label %61

61:                                               ; preds = %49, %45
  call void @llvm.lifetime.end.p0(i64 4, ptr %7) #9
  ret void
}