; Function Attrs: nounwind uwtable
define internal void @AddGreenToBlueAndRed_SSE2(ptr noundef %0, i32 noundef %1, ptr noundef %2) #2 {
  %.not23 = icmp slt i32 %1, 4
  br i1 %.not23, label %._crit_edge, label %.lr.ph.preheader

.lr.ph.preheader:                                 ; preds = %3
  %4 = zext nneg i32 %1 to i64
  br label %.lr.ph

.lr.ph:                                           ; preds = %.lr.ph.preheader, %.lr.ph
  %indvars.iv25 = phi i64 [ 0, %.lr.ph.preheader ], [ %indvars.iv.next26, %.lr.ph ]
  %indvars.iv = phi i64 [ 4, %.lr.ph.preheader ], [ %indvars.iv.next, %.lr.ph ]
  %5 = getelementptr inbounds nuw i32, ptr %0, i64 %indvars.iv25
  %6 = load <2 x i64>, ptr %5, align 1, !tbaa !9
  %7 = bitcast <2 x i64> %6 to <8 x i16>
  %8 = lshr <8 x i16> %7, splat (i16 8)
  %9 = shufflevector <8 x i16> %8, <8 x i16> poison, <8 x i32> <i32 0, i32 0, i32 2, i32 2, i32 4, i32 4, i32 6, i32 6>
  %10 = bitcast <2 x i64> %6 to <16 x i8>
  %11 = bitcast <8 x i16> %9 to <16 x i8>
  %12 = add <16 x i8> %11, %10
  %13 = getelementptr inbounds nuw i32, ptr %2, i64 %indvars.iv25
  store <16 x i8> %12, ptr %13, align 1, !tbaa !9
  %indvars.iv.next = add nuw nsw i64 %indvars.iv, 4
  %.not = icmp samesign ugt i64 %indvars.iv.next, %4
  %indvars.iv.next26 = add nuw nsw i64 %indvars.iv25, 4
  br i1 %.not, label %._crit_edge.loopexit, label %.lr.ph, !llvm.loop !25

._crit_edge.loopexit:                             ; preds = %.lr.ph
  %14 = trunc nuw nsw i64 %indvars.iv to i32
  br label %._crit_edge

._crit_edge:                                      ; preds = %._crit_edge.loopexit, %3
  %.0.lcssa = phi i32 [ 0, %3 ], [ %14, %._crit_edge.loopexit ]
  %.not22 = icmp eq i32 %.0.lcssa, %1
  br i1 %.not22, label %20, label %15

15:                                               ; preds = %._crit_edge
  %16 = zext nneg i32 %.0.lcssa to i64
  %17 = getelementptr inbounds nuw i32, ptr %0, i64 %16
  %18 = sub nsw i32 %1, %.0.lcssa
  %19 = getelementptr inbounds nuw i32, ptr %2, i64 %16
  tail call void @VP8LAddGreenToBlueAndRed_C(ptr noundef %17, i32 noundef %18, ptr noundef %19) #7
  br label %20

20:                                               ; preds = %15, %._crit_edge
  ret void
}